target datalayout = "e-m:e-p270:32:32-p271:32:32-p272:64:64-i64:64-i128:128-f80:128-n8:16:32:64-S128"
target triple = "x86_64-pc-linux-gnu"

%struct.cl_fmap = type { ptr, ptr, ptr, i64, i64, i64, i64, i8, i8, i8, i64, i64, i64, i64, ptr, ptr, ptr, ptr, ptr, ptr, ptr, i8, [16 x i8], i8, [20 x i8], i8, [32 x i8], ptr, ptr }
%struct.arj_decode_tag = type { ptr, ptr, i64, ptr, ptr, i16, i16, i32, i32, i16, i16, [1019 x i16], [1019 x i16], [510 x i8], [4096 x i16], [19 x i8], i8, [256 x i16], i32 }

; Function Attrs: inlinehint nounwind uwtable
define internal ptr @fmap_need_off_once(ptr noundef %0, i64 noundef %1, i64 noundef %2) #5 {
  %4 = alloca ptr, align 8
  %5 = alloca i64, align 8
  %6 = alloca i64, align 8
  store ptr %0, ptr %4, align 8, !tbaa !3
  store i64 %1, ptr %5, align 8, !tbaa !18
  store i64 %2, ptr %6, align 8, !tbaa !18
  %7 = load ptr, ptr %4, align 8, !tbaa !3
  %8 = getelementptr inbounds nuw %struct.cl_fmap, ptr %7, i32 0, i32 15
  %9 = load ptr, ptr %8, align 8, !tbaa !64
  %10 = load ptr, ptr %4, align 8, !tbaa !3
  %11 = load i64, ptr %5, align 8, !tbaa !18
  %12 = load i64, ptr %6, align 8, !tbaa !18
  %13 = call ptr %9(ptr noundef %10, i64 noundef %11, i64 noundef %12, i32 noundef 0)
  ret ptr %13
}

; Function Attrs: inlinehint nounwind uwtable
define internal ptr @fmap_need_off_once_len(ptr noundef %0, i64 noundef %1, i64 noundef %2, ptr noundef %3) #5 {
  %5 = alloca ptr, align 8
  %6 = alloca ptr, align 8
  %7 = alloca i64, align 8
  %8 = alloca i64, align 8
  %9 = alloca ptr, align 8
  %10 = alloca ptr, align 8
  %11 = alloca i32, align 4
  store ptr %0, ptr %6, align 8, !tbaa !3
  store i64 %1, ptr %7, align 8, !tbaa !18
  store i64 %2, ptr %8, align 8, !tbaa !18
  store ptr %3, ptr %9, align 8, !tbaa !67
  call void @llvm.lifetime.start.p0(i64 8, ptr %10) #8
  %12 = load i64, ptr %7, align 8, !tbaa !18
  %13 = load ptr, ptr %6, align 8, !tbaa !3
  %14 = getelementptr inbounds nuw %struct.cl_fmap, ptr %13, i32 0, i32 13
  %15 = load i64, ptr %14, align 8, !tbaa !21
  %16 = icmp uge i64 %12, %15
  br i1 %16, label %17, label %19

17:                                               ; preds = %4
  %18 = load ptr, ptr %9, align 8, !tbaa !67
  store i64 0, ptr %18, align 8, !tbaa !18
  store ptr null, ptr %5, align 8
  store i32 1, ptr %11, align 4
  br label %47

19:                                               ; preds = %4
  %20 = load i64, ptr %8, align 8, !tbaa !18
  %21 = load ptr, ptr %6, align 8, !tbaa !3
  %22 = getelementptr inbounds nuw %struct.cl_fmap, ptr %21, i32 0, i32 13
  %23 = load i64, ptr %22, align 8, !tbaa !21
  %24 = load i64, ptr %7, align 8, !tbaa !18
  %25 = sub i64 %23, %24
  %26 = icmp ugt i64 %20, %25
  br i1 %26, label %27, label %33

27:                                               ; preds = %19
  %28 = load ptr, ptr %6, align 8, !tbaa !3
  %29 = getelementptr inbounds nuw %struct.cl_fmap, ptr %28, i32 0, i32 13
  %30 = load i64, ptr %29, align 8, !tbaa !21
  %31 = load i64, ptr %7, align 8, !tbaa !18
  %32 = sub i64 %30, %31
  store i64 %32, ptr %8, align 8, !tbaa !18
  br label %33

33:                                               ; preds = %27, %19
  %34 = load ptr, ptr %6, align 8, !tbaa !3
  %35 = load i64, ptr %7, align 8, !tbaa !18
  %36 = load i64, ptr %8, align 8, !tbaa !18
  %37 = call ptr @fmap_need_off_once(ptr noundef %34, i64 noundef %35, i64 noundef %36)
  store ptr %37, ptr %10, align 8, !tbaa !65
  %38 = load ptr, ptr %10, align 8, !tbaa !65
  %39 = icmp ne ptr %38, null
  br i1 %39, label %40, label %42

40:                                               ; preds = %33
  %41 = load i64, ptr %8, align 8, !tbaa !18
  br label %43

42:                                               ; preds = %33
  br label %43

43:                                               ; preds = %42, %40
  %44 = phi i64 [ %41, %40 ], [ 0, %42 ]
  %45 = load ptr, ptr %9, align 8, !tbaa !67
  store i64 %44, ptr %45, align 8, !tbaa !18
  %46 = load ptr, ptr %10, align 8, !tbaa !65
  store ptr %46, ptr %5, align 8
  store i32 1, ptr %11, align 4
  br label %47

47:                                               ; preds = %43, %17
  call void @llvm.lifetime.end.p0(i64 8, ptr %10) #8
  %48 = load ptr, ptr %5, align 8
  ret ptr %48
}

; Function Attrs: nounwind uwtable
define internal i32 @fill_buf(ptr noundef %0, i32 noundef %1) #0 {
  %3 = alloca i32, align 4
  %4 = alloca ptr, align 8
  %5 = alloca i32, align 4
  %6 = alloca i64, align 8
  %7 = alloca i32, align 4
  store ptr %0, ptr %4, align 8, !tbaa !59
  store i32 %1, ptr %5, align 4, !tbaa !17
  %8 = load ptr, ptr %4, align 8, !tbaa !59
  %9 = getelementptr inbounds nuw %struct.arj_decode_tag, ptr %8, i32 0, i32 18
  %10 = load i32, ptr %9, align 8, !tbaa !58
  %11 = icmp eq i32 %10, 26
  br i1 %11, label %12, label %13

12:                                               ; preds = %2
  store i32 26, ptr %3, align 4
  br label %148

13:                                               ; preds = %2
  %14 = load ptr, ptr %4, align 8, !tbaa !59
  %15 = getelementptr inbounds nuw %struct.arj_decode_tag, ptr %14, i32 0, i32 6
  %16 = load i16, ptr %15, align 2, !tbaa !63
  %17 = zext i16 %16 to i64
  %18 = load i32, ptr %5, align 4, !tbaa !17
  %19 = icmp sgt i32 %18, 0
  br i1 %19, label %20, label %24

20:                                               ; preds = %13
  %21 = load i32, ptr %5, align 4, !tbaa !17
  %22 = sub nsw i32 %21, 1
  %23 = shl i32 2, %22
  br label %25

24:                                               ; preds = %13
  br label %25

25:                                               ; preds = %24, %20
  %26 = phi i32 [ %23, %20 ], [ 0, %24 ]
  %27 = sext i32 %26 to i64
  %28 = mul i64 %17, %27
  %29 = icmp ugt i64 %28, 4294967295
  br i1 %29, label %30, label %31

30:                                               ; preds = %25
  store i32 26, ptr %3, align 4
  br label %148

31:                                               ; preds = %25
  %32 = load ptr, ptr %4, align 8, !tbaa !59
  %33 = getelementptr inbounds nuw %struct.arj_decode_tag, ptr %32, i32 0, i32 6
  %34 = load i16, ptr %33, align 2, !tbaa !63
  %35 = zext i16 %34 to i64
  %36 = load i32, ptr %5, align 4, !tbaa !17
  %37 = zext i32 %36 to i64
  %38 = shl i64 %35, %37
  %39 = and i64 %38, 65535
  %40 = trunc i64 %39 to i16
  %41 = load ptr, ptr %4, align 8, !tbaa !59
  %42 = getelementptr inbounds nuw %struct.arj_decode_tag, ptr %41, i32 0, i32 6
  store i16 %40, ptr %42, align 2, !tbaa !63
  br label %43

43:                                               ; preds = %128, %31
  %44 = load i32, ptr %5, align 4, !tbaa !17
  %45 = load ptr, ptr %4, align 8, !tbaa !59
  %46 = getelementptr inbounds nuw %struct.arj_decode_tag, ptr %45, i32 0, i32 7
  %47 = load i32, ptr %46, align 4, !tbaa !70
  %48 = icmp sgt i32 %44, %47
  br i1 %48, label %49, label %131

49:                                               ; preds = %43
  %50 = load ptr, ptr %4, align 8, !tbaa !59
  %51 = getelementptr inbounds nuw %struct.arj_decode_tag, ptr %50, i32 0, i32 16
  %52 = load i8, ptr %51, align 1, !tbaa !69
  %53 = zext i8 %52 to i32
  %54 = load ptr, ptr %4, align 8, !tbaa !59
  %55 = getelementptr inbounds nuw %struct.arj_decode_tag, ptr %54, i32 0, i32 7
  %56 = load i32, ptr %55, align 4, !tbaa !70
  %57 = load i32, ptr %5, align 4, !tbaa !17
  %58 = sub nsw i32 %57, %56
  store i32 %58, ptr %5, align 4, !tbaa !17
  %59 = shl i32 %53, %58
  %60 = load ptr, ptr %4, align 8, !tbaa !59
  %61 = getelementptr inbounds nuw %struct.arj_decode_tag, ptr %60, i32 0, i32 6
  %62 = load i16, ptr %61, align 2, !tbaa !63
  %63 = zext i16 %62 to i32
  %64 = or i32 %63, %59
  %65 = trunc i32 %64 to i16
  store i16 %65, ptr %61, align 2, !tbaa !63
  %66 = load ptr, ptr %4, align 8, !tbaa !59
  %67 = getelementptr inbounds nuw %struct.arj_decode_tag, ptr %66, i32 0, i32 8
  %68 = load i32, ptr %67, align 8, !tbaa !57
  %69 = icmp ne i32 %68, 0
  br i1 %69, label %70, label %125

70:                                               ; preds = %49
  %71 = load ptr, ptr %4, align 8, !tbaa !59
  %72 = getelementptr inbounds nuw %struct.arj_decode_tag, ptr %71, i32 0, i32 8
  %73 = load i32, ptr %72, align 8, !tbaa !57
  %74 = add i32 %73, -1
  store i32 %74, ptr %72, align 8, !tbaa !57
  %75 = load ptr, ptr %4, align 8, !tbaa !59
  %76 = getelementptr inbounds nuw %struct.arj_decode_tag, ptr %75, i32 0, i32 3
  %77 = load ptr, ptr %76, align 8, !tbaa !71
  %78 = load ptr, ptr %4, align 8, !tbaa !59
  %79 = getelementptr inbounds nuw %struct.arj_decode_tag, ptr %78, i32 0, i32 4
  %80 = load ptr, ptr %79, align 8, !tbaa !72
  %81 = icmp eq ptr %77, %80
  br i1 %81, label %82, label %113

82:                                               ; preds = %70
  call void @llvm.lifetime.start.p0(i64 8, ptr %6) #8
  %83 = load ptr, ptr %4, align 8, !tbaa !59
  %84 = getelementptr inbounds nuw %struct.arj_decode_tag, ptr %83, i32 0, i32 1
  %85 = load ptr, ptr %84, align 8, !tbaa !55
  %86 = load ptr, ptr %4, align 8, !tbaa !59
  %87 = getelementptr inbounds nuw %struct.arj_decode_tag, ptr %86, i32 0, i32 2
  %88 = load i64, ptr %87, align 8, !tbaa !56
  %89 = call ptr @fmap_need_off_once_len(ptr noundef %85, i64 noundef %88, i64 noundef 8192, ptr noundef %6)
  %90 = load ptr, ptr %4, align 8, !tbaa !59
  %91 = getelementptr inbounds nuw %struct.arj_decode_tag, ptr %90, i32 0, i32 3
  store ptr %89, ptr %91, align 8, !tbaa !71
  %92 = load ptr, ptr %4, align 8, !tbaa !59
  %93 = getelementptr inbounds nuw %struct.arj_decode_tag, ptr %92, i32 0, i32 3
  %94 = load ptr, ptr %93, align 8, !tbaa !71
  %95 = icmp ne ptr %94, null
  br i1 %95, label %96, label %99

96:                                               ; preds = %82
  %97 = load i64, ptr %6, align 8, !tbaa !18
  %98 = icmp ne i64 %97, 0
  br i1 %98, label %102, label %99

99:                                               ; preds = %96, %82
  %100 = load ptr, ptr %4, align 8, !tbaa !59
  %101 = getelementptr inbounds nuw %struct.arj_decode_tag, ptr %100, i32 0, i32 18
  store i32 26, ptr %101, align 8, !tbaa !58
  store i32 26, ptr %3, align 4
  store i32 1, ptr %7, align 4
  br label %110

102:                                              ; preds = %96
  %103 = load ptr, ptr %4, align 8, !tbaa !59
  %104 = getelementptr inbounds nuw %struct.arj_decode_tag, ptr %103, i32 0, i32 3
  %105 = load ptr, ptr %104, align 8, !tbaa !71
  %106 = load i64, ptr %6, align 8, !tbaa !18
  %107 = getelementptr inbounds nuw i8, ptr %105, i64 %106
  %108 = load ptr, ptr %4, align 8, !tbaa !59
  %109 = getelementptr inbounds nuw %struct.arj_decode_tag, ptr %108, i32 0, i32 4
  store ptr %107, ptr %109, align 8, !tbaa !72
  store i32 0, ptr %7, align 4
  br label %110

110:                                              ; preds = %102, %99
  call void @llvm.lifetime.end.p0(i64 8, ptr %6) #8
  %111 = load i32, ptr %7, align 4
  switch i32 %111, label %150 [
    i32 0, label %112
    i32 1, label %148
  ]

112:                                              ; preds = %110
  br label %113

113:                                              ; preds = %112, %70
  %114 = load ptr, ptr %4, align 8, !tbaa !59
  %115 = getelementptr inbounds nuw %struct.arj_decode_tag, ptr %114, i32 0, i32 3
  %116 = load ptr, ptr %115, align 8, !tbaa !71
  %117 = getelementptr inbounds nuw i8, ptr %116, i32 1
  store ptr %117, ptr %115, align 8, !tbaa !71
  %118 = load i8, ptr %116, align 1, !tbaa !35
  %119 = load ptr, ptr %4, align 8, !tbaa !59
  %120 = getelementptr inbounds nuw %struct.arj_decode_tag, ptr %119, i32 0, i32 16
  store i8 %118, ptr %120, align 1, !tbaa !69
  %121 = load ptr, ptr %4, align 8, !tbaa !59
  %122 = getelementptr inbounds nuw %struct.arj_decode_tag, ptr %121, i32 0, i32 2
  %123 = load i64, ptr %122, align 8, !tbaa !56
  %124 = add i64 %123, 1
  store i64 %124, ptr %122, align 8, !tbaa !56
  br label %128

125:                                              ; preds = %49
  %126 = load ptr, ptr %4, align 8, !tbaa !59
  %127 = getelementptr inbounds nuw %struct.arj_decode_tag, ptr %126, i32 0, i32 16
  store i8 0, ptr %127, align 1, !tbaa !69
  br label %128

128:                                              ; preds = %125, %113
  %129 = load ptr, ptr %4, align 8, !tbaa !59
  %130 = getelementptr inbounds nuw %struct.arj_decode_tag, ptr %129, i32 0, i32 7
  store i32 8, ptr %130, align 4, !tbaa !70
  br label %43

131:                                              ; preds = %43
  %132 = load ptr, ptr %4, align 8, !tbaa !59
  %133 = getelementptr inbounds nuw %struct.arj_decode_tag, ptr %132, i32 0, i32 16
  %134 = load i8, ptr %133, align 1, !tbaa !69
  %135 = zext i8 %134 to i32
  %136 = load i32, ptr %5, align 4, !tbaa !17
  %137 = load ptr, ptr %4, align 8, !tbaa !59
  %138 = getelementptr inbounds nuw %struct.arj_decode_tag, ptr %137, i32 0, i32 7
  %139 = load i32, ptr %138, align 4, !tbaa !70
  %140 = sub nsw i32 %139, %136
  store i32 %140, ptr %138, align 4, !tbaa !70
  %141 = ashr i32 %135, %140
  %142 = load ptr, ptr %4, align 8, !tbaa !59
  %143 = getelementptr inbounds nuw %struct.arj_decode_tag, ptr %142, i32 0, i32 6
  %144 = load i16, ptr %143, align 2, !tbaa !63
  %145 = zext i16 %144 to i32
  %146 = or i32 %145, %141
  %147 = trunc i32 %146 to i16
  store i16 %147, ptr %143, align 2, !tbaa !63
  store i32 0, ptr %3, align 4
  br label %148

148:                                              ; preds = %131, %110, %30, %12
  %149 = load i32, ptr %3, align 4
  ret i32 %149

150:                                              ; preds = %110
  unreachable
}