; Function Attrs: nounwind uwtable
define internal fastcc void @fill_buf(ptr noundef nonnull captures(none) %0, i32 noundef range(i32 -32771, 65536) %1) unnamed_addr #0 {
  %3 = getelementptr inbounds nuw i8, ptr %0, i64 13368
  %4 = load i32, ptr %3, align 8, !tbaa !59
  %5 = icmp eq i32 %4, 26
  br i1 %5, label %82, label %6

6:                                                ; preds = %2
  %7 = getelementptr inbounds nuw i8, ptr %0, i64 42
  %8 = load i16, ptr %7, align 2, !tbaa !53
  %9 = zext i16 %8 to i64
  %10 = icmp sgt i32 %1, 0
  %11 = add nsw i32 %1, -1
  %12 = shl i32 2, %11
  %13 = select i1 %10, i32 %12, i32 0
  %14 = sext i32 %13 to i64
  %15 = mul nsw i64 %9, %14
  %16 = icmp ugt i64 %15, 4294967295
  br i1 %16, label %82, label %17

17:                                               ; preds = %6
  %18 = zext nneg i32 %1 to i64
  %19 = shl i64 %9, %18
  %20 = trunc i64 %19 to i16
  store i16 %20, ptr %7, align 2, !tbaa !53
  %21 = getelementptr inbounds nuw i8, ptr %0, i64 44
  %22 = load i32, ptr %21, align 4, !tbaa !56
  %23 = icmp sgt i32 %1, %22
  %24 = getelementptr inbounds nuw i8, ptr %0, i64 12853
  br i1 %23, label %.lr.ph, label %.._crit_edge_crit_edge

.._crit_edge_crit_edge:                           ; preds = %17
  %.pre75 = load i8, ptr %24, align 1, !tbaa !52
  br label %._crit_edge

.lr.ph:                                           ; preds = %17
  %25 = getelementptr inbounds nuw i8, ptr %0, i64 48
  %26 = getelementptr inbounds nuw i8, ptr %0, i64 24
  %27 = getelementptr inbounds nuw i8, ptr %0, i64 32
  %28 = getelementptr inbounds nuw i8, ptr %0, i64 8
  %29 = getelementptr inbounds nuw i8, ptr %0, i64 16
  %30 = load i32, ptr %25, align 8, !tbaa !51
  %31 = icmp eq i32 %30, 0
  %.promoted = load i8, ptr %24, align 1, !tbaa !52
  br i1 %31, label %.lr.ph.split.us, label %.lr.ph.split

.lr.ph.split.us:                                  ; preds = %.lr.ph
  %32 = zext i8 %.promoted to i32
  br label %33

33:                                               ; preds = %33, %.lr.ph.split.us
  %34 = phi i16 [ %20, %.lr.ph.split.us ], [ %40, %33 ]
  %35 = phi i32 [ %32, %.lr.ph.split.us ], [ 0, %33 ]
  %36 = phi i32 [ %22, %.lr.ph.split.us ], [ 8, %33 ]
  %.03560.us = phi i32 [ %1, %.lr.ph.split.us ], [ %37, %33 ]
  %37 = sub nsw i32 %.03560.us, %36
  %38 = shl i32 %35, %37
  %39 = trunc i32 %38 to i16
  %40 = or i16 %34, %39
  %41 = icmp sgt i32 %37, 8
  br i1 %41, label %33, label %._crit_edge.split.us

._crit_edge.split.us:                             ; preds = %33
  store i8 0, ptr %24, align 1, !tbaa !52
  br label %._crit_edge

.lr.ph.split:                                     ; preds = %.lr.ph, %72
  %42 = phi i8 [ %73, %72 ], [ %.promoted, %.lr.ph ]
  %43 = phi i32 [ 8, %72 ], [ %22, %.lr.ph ]
  %.03560 = phi i32 [ %45, %72 ], [ %1, %.lr.ph ]
  %44 = zext i8 %42 to i32
  %45 = sub nsw i32 %.03560, %43
  %46 = shl i32 %44, %45
  %47 = load i16, ptr %7, align 2, !tbaa !53
  %48 = trunc i32 %46 to i16
  %49 = or i16 %47, %48
  store i16 %49, ptr %7, align 2, !tbaa !53
  %50 = load i32, ptr %25, align 8, !tbaa !51
  %.not = icmp eq i32 %50, 0
  br i1 %.not, label %71, label %51

51:                                               ; preds = %.lr.ph.split
  %52 = add i32 %50, -1
  store i32 %52, ptr %25, align 8, !tbaa !51
  %53 = load ptr, ptr %26, align 8, !tbaa !55
  %54 = load ptr, ptr %27, align 8, !tbaa !54
  %55 = icmp eq ptr %53, %54
  %.pre74 = load i64, ptr %29, align 8, !tbaa !50
  br i1 %55, label %56, label %65

56:                                               ; preds = %51
  %57 = load ptr, ptr %28, align 8, !tbaa !49
  %58 = getelementptr inbounds nuw i8, ptr %57, i64 88
  %59 = load i64, ptr %58, align 8, !tbaa !17
  %.not.i = icmp ult i64 %.pre74, %59
  br i1 %.not.i, label %fmap_need_off_once_len.exit, label %fmap_need_off_once_len.exit.thread

fmap_need_off_once_len.exit.thread:               ; preds = %56
  store ptr null, ptr %26, align 8, !tbaa !55
  br label %.loopexit

fmap_need_off_once_len.exit:                      ; preds = %56
  %60 = sub nuw i64 %59, %.pre74
  %spec.select.i = tail call i64 @llvm.umin.i64(i64 %60, i64 8192)
  %61 = getelementptr inbounds nuw i8, ptr %57, i64 104
  %62 = load ptr, ptr %61, align 8, !tbaa !13
  %63 = tail call ptr %62(ptr noundef nonnull %57, i64 noundef %.pre74, i64 noundef range(i64 0, 4294967296) %spec.select.i, i32 noundef 0) #12
  %.not20.i = icmp eq ptr %63, null
  store ptr %63, ptr %26, align 8, !tbaa !55
  br i1 %.not20.i, label %.loopexit, label %.thread

.thread:                                          ; preds = %fmap_need_off_once_len.exit
  %64 = getelementptr inbounds nuw i8, ptr %63, i64 %spec.select.i
  store ptr %64, ptr %27, align 8, !tbaa !54
  %.pre73 = load i64, ptr %29, align 8, !tbaa !50
  br label %65

.loopexit:                                        ; preds = %fmap_need_off_once_len.exit, %fmap_need_off_once_len.exit.thread
  store i32 26, ptr %3, align 8, !tbaa !59
  br label %82

65:                                               ; preds = %.thread, %51
  %66 = phi i64 [ %.pre73, %.thread ], [ %.pre74, %51 ]
  %67 = phi ptr [ %63, %.thread ], [ %53, %51 ]
  %68 = getelementptr inbounds nuw i8, ptr %67, i64 1
  store ptr %68, ptr %26, align 8, !tbaa !55
  %69 = load i8, ptr %67, align 1, !tbaa !29
  store i8 %69, ptr %24, align 1, !tbaa !52
  %70 = add i64 %66, 1
  store i64 %70, ptr %29, align 8, !tbaa !50
  br label %72

71:                                               ; preds = %.lr.ph.split
  store i8 0, ptr %24, align 1, !tbaa !52
  br label %72

72:                                               ; preds = %71, %65
  %73 = phi i8 [ 0, %71 ], [ %69, %65 ]
  store i32 8, ptr %21, align 4, !tbaa !56
  %74 = icmp sgt i32 %45, 8
  br i1 %74, label %.lr.ph.split, label %._crit_edge.loopexit, !llvm.loop !57

._crit_edge.loopexit:                             ; preds = %72
  %.pre76 = load i16, ptr %7, align 2, !tbaa !53
  br label %._crit_edge

._crit_edge:                                      ; preds = %.._crit_edge_crit_edge, %._crit_edge.loopexit, %._crit_edge.split.us
  %75 = phi i16 [ %20, %.._crit_edge_crit_edge ], [ %40, %._crit_edge.split.us ], [ %.pre76, %._crit_edge.loopexit ]
  %76 = phi i8 [ %.pre75, %.._crit_edge_crit_edge ], [ 0, %._crit_edge.split.us ], [ %73, %._crit_edge.loopexit ]
  %.035.lcssa = phi i32 [ %1, %.._crit_edge_crit_edge ], [ %37, %._crit_edge.split.us ], [ %45, %._crit_edge.loopexit ]
  %.lcssa = phi i32 [ %22, %.._crit_edge_crit_edge ], [ 8, %._crit_edge.split.us ], [ 8, %._crit_edge.loopexit ]
  %77 = zext i8 %76 to i32
  %78 = sub nsw i32 %.lcssa, %.035.lcssa
  store i32 %78, ptr %21, align 4, !tbaa !56
  %79 = lshr i32 %77, %78
  %80 = trunc nuw nsw i32 %79 to i16
  %81 = or i16 %75, %80
  store i16 %81, ptr %7, align 2, !tbaa !53
  br label %82

82:                                               ; preds = %.loopexit, %6, %2, %._crit_edge
  ret void
}